target datalayout = "e-m:e-p270:32:32-p271:32:32-p272:64:64-i64:64-i128:128-f80:128-n8:16:32:64-S128"
target triple = "x86_64-pc-linux-gnu"

; Function Attrs: mustprogress uwtable
define noundef zeroext i1 @_ZN4base4MoveERKNS_8FilePathES2_(ptr noundef nonnull align 8 dereferenceable(32) %0, ptr noundef nonnull align 8 dereferenceable(32) %1) #0 {
  %3 = alloca i1, align 1
  %4 = alloca ptr, align 8
  %5 = alloca ptr, align 8
  store ptr %0, ptr %4, align 8, !tbaa !3
  store ptr %1, ptr %5, align 8, !tbaa !3
  %6 = load ptr, ptr %4, align 8, !tbaa !3
  %7 = call noundef zeroext i1 @_ZNK4base8FilePath16ReferencesParentEv(ptr noundef nonnull align 8 dereferenceable(32) %6)
  br i1 %7, label %11, label %8

8:                                                ; preds = %2
  %9 = load ptr, ptr %5, align 8, !tbaa !3
  %10 = call noundef zeroext i1 @_ZNK4base8FilePath16ReferencesParentEv(ptr noundef nonnull align 8 dereferenceable(32) %9)
  br i1 %10, label %11, label %12

11:                                               ; preds = %8, %2
  store i1 false, ptr %3, align 1
  br label %16

12:                                               ; preds = %8
  %13 = load ptr, ptr %4, align 8, !tbaa !3
  %14 = load ptr, ptr %5, align 8, !tbaa !3
  %15 = call noundef zeroext i1 @_ZN4base8internal10MoveUnsafeERKNS_8FilePathES3_(ptr noundef nonnull align 8 dereferenceable(32) %13, ptr noundef nonnull align 8 dereferenceable(32) %14)
  store i1 %15, ptr %3, align 1
  br label %16

16:                                               ; preds = %12, %11
  %17 = load i1, ptr %3, align 1
  ret i1 %17
}