; Function Attrs: mustprogress uwtable
define noundef zeroext i1 @_ZN4base4MoveERKNS_8FilePathES2_(ptr noundef nonnull align 8 dereferenceable(32) %0, ptr noundef nonnull align 8 dereferenceable(32) %1) local_unnamed_addr #0 {
  %3 = tail call noundef zeroext i1 @_ZNK4base8FilePath16ReferencesParentEv(ptr noundef nonnull align 8 dereferenceable(32) %0)
  br i1 %3, label %8, label %4

4:                                                ; preds = %2
  %5 = tail call noundef zeroext i1 @_ZNK4base8FilePath16ReferencesParentEv(ptr noundef nonnull align 8 dereferenceable(32) %1)
  br i1 %5, label %8, label %6

6:                                                ; preds = %4
  %7 = tail call noundef zeroext i1 @_ZN4base8internal10MoveUnsafeERKNS_8FilePathES3_(ptr noundef nonnull align 8 dereferenceable(32) %0, ptr noundef nonnull align 8 dereferenceable(32) %1)
  br label %8

8:                                                ; preds = %2, %4, %6
  %.0 = phi i1 [ %7, %6 ], [ false, %4 ], [ false, %2 ]
  ret i1 %.0
}